target datalayout = "e-m:e-p270:32:32-p271:32:32-p272:64:64-i64:64-i128:128-f80:128-n8:16:32:64-S128"
target triple = "x86_64-pc-linux-gnu"

; Function Attrs: alwaysinline nounwind willreturn memory(none) uwtable
define internal zeroext i8 @av_clip_uint8_c(i32 noundef %0) #6 {
  %2 = alloca i8, align 1
  %3 = alloca i32, align 4
  store i32 %0, ptr %3, align 4, !tbaa !30
  %4 = load i32, ptr %3, align 4, !tbaa !30
  %5 = and i32 %4, -256
  %6 = icmp ne i32 %5, 0
  br i1 %6, label %7, label %12

7:                                                ; preds = %1
  %8 = load i32, ptr %3, align 4, !tbaa !30
  %9 = xor i32 %8, -1
  %10 = ashr i32 %9, 31
  %11 = trunc i32 %10 to i8
  store i8 %11, ptr %2, align 1
  br label %15

12:                                               ; preds = %1
  %13 = load i32, ptr %3, align 4, !tbaa !30
  %14 = trunc i32 %13 to i8
  store i8 %14, ptr %2, align 1
  br label %15

15:                                               ; preds = %12, %7
  %16 = load i8, ptr %2, align 1
  ret i8 %16
}

; Function Attrs: alwaysinline nounwind uwtable
define internal void @yuv2ayuv_X_c_template(ptr noundef %0, ptr noundef %1, ptr noundef %2, i32 noundef %3, ptr noundef %4, ptr noundef %5, ptr noundef %6, i32 noundef %7, ptr noundef %8, ptr noundef %9, i32 noundef %10, i32 noundef %11, i32 noundef %12) #3 {
  %14 = alloca ptr, align 8
  %15 = alloca ptr, align 8
  %16 = alloca ptr, align 8
  %17 = alloca i32, align 4
  %18 = alloca ptr, align 8
  %19 = alloca ptr, align 8
  %20 = alloca ptr, align 8
  %21 = alloca i32, align 4
  %22 = alloca ptr, align 8
  %23 = alloca ptr, align 8
  %24 = alloca i32, align 4
  %25 = alloca i32, align 4
  %26 = alloca i32, align 4
  %27 = alloca i32, align 4
  %28 = alloca i32, align 4
  %29 = alloca i32, align 4
  %30 = alloca i32, align 4
  %31 = alloca i32, align 4
  %32 = alloca i32, align 4
  store ptr %0, ptr %14, align 8, !tbaa !4
  store ptr %1, ptr %15, align 8, !tbaa !45
  store ptr %2, ptr %16, align 8, !tbaa !47
  store i32 %3, ptr %17, align 4, !tbaa !30
  store ptr %4, ptr %18, align 8, !tbaa !45
  store ptr %5, ptr %19, align 8, !tbaa !47
  store ptr %6, ptr %20, align 8, !tbaa !47
  store i32 %7, ptr %21, align 4, !tbaa !30
  store ptr %8, ptr %22, align 8, !tbaa !47
  store ptr %9, ptr %23, align 8, !tbaa !46
  store i32 %10, ptr %24, align 4, !tbaa !30
  store i32 %11, ptr %25, align 4, !tbaa !30
  store i32 %12, ptr %26, align 4, !tbaa !30
  call void @llvm.lifetime.start.p0(i64 4, ptr %27) #8
  store i32 0, ptr %27, align 4, !tbaa !30
  br label %33

33:                                               ; preds = %300, %13
  %34 = load i32, ptr %27, align 4, !tbaa !30
  %35 = load i32, ptr %24, align 4, !tbaa !30
  %36 = icmp slt i32 %34, %35
  br i1 %36, label %37, label %303

37:                                               ; preds = %33
  call void @llvm.lifetime.start.p0(i64 4, ptr %28) #8
  call void @llvm.lifetime.start.p0(i64 4, ptr %29) #8
  store i32 262144, ptr %29, align 4, !tbaa !30
  call void @llvm.lifetime.start.p0(i64 4, ptr %30) #8
  store i32 262144, ptr %30, align 4, !tbaa !30
  call void @llvm.lifetime.start.p0(i64 4, ptr %31) #8
  store i32 262144, ptr %31, align 4, !tbaa !30
  call void @llvm.lifetime.start.p0(i64 4, ptr %32) #8
  store i32 255, ptr %32, align 4, !tbaa !30
  store i32 0, ptr %28, align 4, !tbaa !30
  br label %38

38:                                               ; preds = %62, %37
  %39 = load i32, ptr %28, align 4, !tbaa !30
  %40 = load i32, ptr %17, align 4, !tbaa !30
  %41 = icmp slt i32 %39, %40
  br i1 %41, label %42, label %65

42:                                               ; preds = %38
  %43 = load ptr, ptr %16, align 8, !tbaa !47
  %44 = load i32, ptr %28, align 4, !tbaa !30
  %45 = sext i32 %44 to i64
  %46 = getelementptr inbounds ptr, ptr %43, i64 %45
  %47 = load ptr, ptr %46, align 8, !tbaa !45
  %48 = load i32, ptr %27, align 4, !tbaa !30
  %49 = sext i32 %48 to i64
  %50 = getelementptr inbounds i16, ptr %47, i64 %49
  %51 = load i16, ptr %50, align 2, !tbaa !49
  %52 = sext i16 %51 to i32
  %53 = load ptr, ptr %15, align 8, !tbaa !45
  %54 = load i32, ptr %28, align 4, !tbaa !30
  %55 = sext i32 %54 to i64
  %56 = getelementptr inbounds i16, ptr %53, i64 %55
  %57 = load i16, ptr %56, align 2, !tbaa !49
  %58 = sext i16 %57 to i32
  %59 = mul nsw i32 %52, %58
  %60 = load i32, ptr %29, align 4, !tbaa !30
  %61 = add nsw i32 %60, %59
  store i32 %61, ptr %29, align 4, !tbaa !30
  br label %62

62:                                               ; preds = %42
  %63 = load i32, ptr %28, align 4, !tbaa !30
  %64 = add nsw i32 %63, 1
  store i32 %64, ptr %28, align 4, !tbaa !30
  br label %38, !llvm.loop !187

65:                                               ; preds = %38
  store i32 0, ptr %28, align 4, !tbaa !30
  br label %66

66:                                               ; preds = %90, %65
  %67 = load i32, ptr %28, align 4, !tbaa !30
  %68 = load i32, ptr %21, align 4, !tbaa !30
  %69 = icmp slt i32 %67, %68
  br i1 %69, label %70, label %93

70:                                               ; preds = %66
  %71 = load ptr, ptr %19, align 8, !tbaa !47
  %72 = load i32, ptr %28, align 4, !tbaa !30
  %73 = sext i32 %72 to i64
  %74 = getelementptr inbounds ptr, ptr %71, i64 %73
  %75 = load ptr, ptr %74, align 8, !tbaa !45
  %76 = load i32, ptr %27, align 4, !tbaa !30
  %77 = sext i32 %76 to i64
  %78 = getelementptr inbounds i16, ptr %75, i64 %77
  %79 = load i16, ptr %78, align 2, !tbaa !49
  %80 = sext i16 %79 to i32
  %81 = load ptr, ptr %18, align 8, !tbaa !45
  %82 = load i32, ptr %28, align 4, !tbaa !30
  %83 = sext i32 %82 to i64
  %84 = getelementptr inbounds i16, ptr %81, i64 %83
  %85 = load i16, ptr %84, align 2, !tbaa !49
  %86 = sext i16 %85 to i32
  %87 = mul nsw i32 %80, %86
  %88 = load i32, ptr %30, align 4, !tbaa !30
  %89 = add nsw i32 %88, %87
  store i32 %89, ptr %30, align 4, !tbaa !30
  br label %90

90:                                               ; preds = %70
  %91 = load i32, ptr %28, align 4, !tbaa !30
  %92 = add nsw i32 %91, 1
  store i32 %92, ptr %28, align 4, !tbaa !30
  br label %66, !llvm.loop !188

93:                                               ; preds = %66
  store i32 0, ptr %28, align 4, !tbaa !30
  br label %94

94:                                               ; preds = %118, %93
  %95 = load i32, ptr %28, align 4, !tbaa !30
  %96 = load i32, ptr %21, align 4, !tbaa !30
  %97 = icmp slt i32 %95, %96
  br i1 %97, label %98, label %121

98:                                               ; preds = %94
  %99 = load ptr, ptr %20, align 8, !tbaa !47
  %100 = load i32, ptr %28, align 4, !tbaa !30
  %101 = sext i32 %100 to i64
  %102 = getelementptr inbounds ptr, ptr %99, i64 %101
  %103 = load ptr, ptr %102, align 8, !tbaa !45
  %104 = load i32, ptr %27, align 4, !tbaa !30
  %105 = sext i32 %104 to i64
  %106 = getelementptr inbounds i16, ptr %103, i64 %105
  %107 = load i16, ptr %106, align 2, !tbaa !49
  %108 = sext i16 %107 to i32
  %109 = load ptr, ptr %18, align 8, !tbaa !45
  %110 = load i32, ptr %28, align 4, !tbaa !30
  %111 = sext i32 %110 to i64
  %112 = getelementptr inbounds i16, ptr %109, i64 %111
  %113 = load i16, ptr %112, align 2, !tbaa !49
  %114 = sext i16 %113 to i32
  %115 = mul nsw i32 %108, %114
  %116 = load i32, ptr %31, align 4, !tbaa !30
  %117 = add nsw i32 %116, %115
  store i32 %117, ptr %31, align 4, !tbaa !30
  br label %118

118:                                              ; preds = %98
  %119 = load i32, ptr %28, align 4, !tbaa !30
  %120 = add nsw i32 %119, 1
  store i32 %120, ptr %28, align 4, !tbaa !30
  br label %94, !llvm.loop !189

121:                                              ; preds = %94
  %122 = load i32, ptr %29, align 4, !tbaa !30
  %123 = ashr i32 %122, 19
  store i32 %123, ptr %29, align 4, !tbaa !30
  %124 = load i32, ptr %30, align 4, !tbaa !30
  %125 = ashr i32 %124, 19
  store i32 %125, ptr %30, align 4, !tbaa !30
  %126 = load i32, ptr %31, align 4, !tbaa !30
  %127 = ashr i32 %126, 19
  store i32 %127, ptr %31, align 4, !tbaa !30
  %128 = load i32, ptr %29, align 4, !tbaa !30
  %129 = and i32 %128, 256
  %130 = icmp ne i32 %129, 0
  br i1 %130, label %131, label %135

131:                                              ; preds = %121
  %132 = load i32, ptr %29, align 4, !tbaa !30
  %133 = call zeroext i8 @av_clip_uint8_c(i32 noundef %132) #10
  %134 = zext i8 %133 to i32
  store i32 %134, ptr %29, align 4, !tbaa !30
  br label %135

135:                                              ; preds = %131, %121
  %136 = load i32, ptr %30, align 4, !tbaa !30
  %137 = and i32 %136, 256
  %138 = icmp ne i32 %137, 0
  br i1 %138, label %139, label %143

139:                                              ; preds = %135
  %140 = load i32, ptr %30, align 4, !tbaa !30
  %141 = call zeroext i8 @av_clip_uint8_c(i32 noundef %140) #10
  %142 = zext i8 %141 to i32
  store i32 %142, ptr %30, align 4, !tbaa !30
  br label %143

143:                                              ; preds = %139, %135
  %144 = load i32, ptr %31, align 4, !tbaa !30
  %145 = and i32 %144, 256
  %146 = icmp ne i32 %145, 0
  br i1 %146, label %147, label %151

147:                                              ; preds = %143
  %148 = load i32, ptr %31, align 4, !tbaa !30
  %149 = call zeroext i8 @av_clip_uint8_c(i32 noundef %148) #10
  %150 = zext i8 %149 to i32
  store i32 %150, ptr %31, align 4, !tbaa !30
  br label %151

151:                                              ; preds = %147, %143
  %152 = load ptr, ptr %22, align 8, !tbaa !47
  %153 = icmp ne ptr %152, null
  br i1 %153, label %154, label %193

154:                                              ; preds = %151
  store i32 262144, ptr %32, align 4, !tbaa !30
  store i32 0, ptr %28, align 4, !tbaa !30
  br label %155

155:                                              ; preds = %179, %154
  %156 = load i32, ptr %28, align 4, !tbaa !30
  %157 = load i32, ptr %17, align 4, !tbaa !30
  %158 = icmp slt i32 %156, %157
  br i1 %158, label %159, label %182

159:                                              ; preds = %155
  %160 = load ptr, ptr %22, align 8, !tbaa !47
  %161 = load i32, ptr %28, align 4, !tbaa !30
  %162 = sext i32 %161 to i64
  %163 = getelementptr inbounds ptr, ptr %160, i64 %162
  %164 = load ptr, ptr %163, align 8, !tbaa !45
  %165 = load i32, ptr %27, align 4, !tbaa !30
  %166 = sext i32 %165 to i64
  %167 = getelementptr inbounds i16, ptr %164, i64 %166
  %168 = load i16, ptr %167, align 2, !tbaa !49
  %169 = sext i16 %168 to i32
  %170 = load ptr, ptr %15, align 8, !tbaa !45
  %171 = load i32, ptr %28, align 4, !tbaa !30
  %172 = sext i32 %171 to i64
  %173 = getelementptr inbounds i16, ptr %170, i64 %172
  %174 = load i16, ptr %173, align 2, !tbaa !49
  %175 = sext i16 %174 to i32
  %176 = mul nsw i32 %169, %175
  %177 = load i32, ptr %32, align 4, !tbaa !30
  %178 = add nsw i32 %177, %176
  store i32 %178, ptr %32, align 4, !tbaa !30
  br label %179

179:                                              ; preds = %159
  %180 = load i32, ptr %28, align 4, !tbaa !30
  %181 = add nsw i32 %180, 1
  store i32 %181, ptr %28, align 4, !tbaa !30
  br label %155, !llvm.loop !190

182:                                              ; preds = %155
  %183 = load i32, ptr %32, align 4, !tbaa !30
  %184 = ashr i32 %183, 19
  store i32 %184, ptr %32, align 4, !tbaa !30
  %185 = load i32, ptr %32, align 4, !tbaa !30
  %186 = and i32 %185, 256
  %187 = icmp ne i32 %186, 0
  br i1 %187, label %188, label %192

188:                                              ; preds = %182
  %189 = load i32, ptr %32, align 4, !tbaa !30
  %190 = call zeroext i8 @av_clip_uint8_c(i32 noundef %189) #10
  %191 = zext i8 %190 to i32
  store i32 %191, ptr %32, align 4, !tbaa !30
  br label %192

192:                                              ; preds = %188, %182
  br label %193

193:                                              ; preds = %192, %151
  %194 = load i32, ptr %26, align 4, !tbaa !30
  %195 = icmp eq i32 %194, 228
  br i1 %195, label %196, label %229

196:                                              ; preds = %193
  %197 = load i32, ptr %32, align 4, !tbaa !30
  %198 = trunc i32 %197 to i8
  %199 = load ptr, ptr %23, align 8, !tbaa !46
  %200 = load i32, ptr %27, align 4, !tbaa !30
  %201 = mul nsw i32 %200, 4
  %202 = add nsw i32 %201, 0
  %203 = sext i32 %202 to i64
  %204 = getelementptr inbounds i8, ptr %199, i64 %203
  store i8 %198, ptr %204, align 1, !tbaa !51
  %205 = load i32, ptr %29, align 4, !tbaa !30
  %206 = trunc i32 %205 to i8
  %207 = load ptr, ptr %23, align 8, !tbaa !46
  %208 = load i32, ptr %27, align 4, !tbaa !30
  %209 = mul nsw i32 %208, 4
  %210 = add nsw i32 %209, 1
  %211 = sext i32 %210 to i64
  %212 = getelementptr inbounds i8, ptr %207, i64 %211
  store i8 %206, ptr %212, align 1, !tbaa !51
  %213 = load i32, ptr %30, align 4, !tbaa !30
  %214 = trunc i32 %213 to i8
  %215 = load ptr, ptr %23, align 8, !tbaa !46
  %216 = load i32, ptr %27, align 4, !tbaa !30
  %217 = mul nsw i32 %216, 4
  %218 = add nsw i32 %217, 2
  %219 = sext i32 %218 to i64
  %220 = getelementptr inbounds i8, ptr %215, i64 %219
  store i8 %214, ptr %220, align 1, !tbaa !51
  %221 = load i32, ptr %31, align 4, !tbaa !30
  %222 = trunc i32 %221 to i8
  %223 = load ptr, ptr %23, align 8, !tbaa !46
  %224 = load i32, ptr %27, align 4, !tbaa !30
  %225 = mul nsw i32 %224, 4
  %226 = add nsw i32 %225, 3
  %227 = sext i32 %226 to i64
  %228 = getelementptr inbounds i8, ptr %223, i64 %227
  store i8 %222, ptr %228, align 1, !tbaa !51
  br label %299

229:                                              ; preds = %193
  %230 = load i32, ptr %26, align 4, !tbaa !30
  %231 = icmp eq i32 %230, 229
  br i1 %231, label %232, label %265

232:                                              ; preds = %229
  %233 = load i32, ptr %30, align 4, !tbaa !30
  %234 = trunc i32 %233 to i8
  %235 = load ptr, ptr %23, align 8, !tbaa !46
  %236 = load i32, ptr %27, align 4, !tbaa !30
  %237 = mul nsw i32 %236, 4
  %238 = add nsw i32 %237, 0
  %239 = sext i32 %238 to i64
  %240 = getelementptr inbounds i8, ptr %235, i64 %239
  store i8 %234, ptr %240, align 1, !tbaa !51
  %241 = load i32, ptr %29, align 4, !tbaa !30
  %242 = trunc i32 %241 to i8
  %243 = load ptr, ptr %23, align 8, !tbaa !46
  %244 = load i32, ptr %27, align 4, !tbaa !30
  %245 = mul nsw i32 %244, 4
  %246 = add nsw i32 %245, 1
  %247 = sext i32 %246 to i64
  %248 = getelementptr inbounds i8, ptr %243, i64 %247
  store i8 %242, ptr %248, align 1, !tbaa !51
  %249 = load i32, ptr %31, align 4, !tbaa !30
  %250 = trunc i32 %249 to i8
  %251 = load ptr, ptr %23, align 8, !tbaa !46
  %252 = load i32, ptr %27, align 4, !tbaa !30
  %253 = mul nsw i32 %252, 4
  %254 = add nsw i32 %253, 2
  %255 = sext i32 %254 to i64
  %256 = getelementptr inbounds i8, ptr %251, i64 %255
  store i8 %250, ptr %256, align 1, !tbaa !51
  %257 = load i32, ptr %32, align 4, !tbaa !30
  %258 = trunc i32 %257 to i8
  %259 = load ptr, ptr %23, align 8, !tbaa !46
  %260 = load i32, ptr %27, align 4, !tbaa !30
  %261 = mul nsw i32 %260, 4
  %262 = add nsw i32 %261, 3
  %263 = sext i32 %262 to i64
  %264 = getelementptr inbounds i8, ptr %259, i64 %263
  store i8 %258, ptr %264, align 1, !tbaa !51
  br label %298

265:                                              ; preds = %229
  %266 = load i32, ptr %31, align 4, !tbaa !30
  %267 = trunc i32 %266 to i8
  %268 = load ptr, ptr %23, align 8, !tbaa !46
  %269 = load i32, ptr %27, align 4, !tbaa !30
  %270 = mul nsw i32 %269, 4
  %271 = add nsw i32 %270, 0
  %272 = sext i32 %271 to i64
  %273 = getelementptr inbounds i8, ptr %268, i64 %272
  store i8 %267, ptr %273, align 1, !tbaa !51
  %274 = load i32, ptr %30, align 4, !tbaa !30
  %275 = trunc i32 %274 to i8
  %276 = load ptr, ptr %23, align 8, !tbaa !46
  %277 = load i32, ptr %27, align 4, !tbaa !30
  %278 = mul nsw i32 %277, 4
  %279 = add nsw i32 %278, 1
  %280 = sext i32 %279 to i64
  %281 = getelementptr inbounds i8, ptr %276, i64 %280
  store i8 %275, ptr %281, align 1, !tbaa !51
  %282 = load i32, ptr %29, align 4, !tbaa !30
  %283 = trunc i32 %282 to i8
  %284 = load ptr, ptr %23, align 8, !tbaa !46
  %285 = load i32, ptr %27, align 4, !tbaa !30
  %286 = mul nsw i32 %285, 4
  %287 = add nsw i32 %286, 2
  %288 = sext i32 %287 to i64
  %289 = getelementptr inbounds i8, ptr %284, i64 %288
  store i8 %283, ptr %289, align 1, !tbaa !51
  %290 = load i32, ptr %32, align 4, !tbaa !30
  %291 = trunc i32 %290 to i8
  %292 = load ptr, ptr %23, align 8, !tbaa !46
  %293 = load i32, ptr %27, align 4, !tbaa !30
  %294 = mul nsw i32 %293, 4
  %295 = add nsw i32 %294, 3
  %296 = sext i32 %295 to i64
  %297 = getelementptr inbounds i8, ptr %292, i64 %296
  store i8 %291, ptr %297, align 1, !tbaa !51
  br label %298

298:                                              ; preds = %265, %232
  br label %299

299:                                              ; preds = %298, %196
  call void @llvm.lifetime.end.p0(i64 4, ptr %32) #8
  call void @llvm.lifetime.end.p0(i64 4, ptr %31) #8
  call void @llvm.lifetime.end.p0(i64 4, ptr %30) #8
  call void @llvm.lifetime.end.p0(i64 4, ptr %29) #8
  call void @llvm.lifetime.end.p0(i64 4, ptr %28) #8
  br label %300

300:                                              ; preds = %299
  %301 = load i32, ptr %27, align 4, !tbaa !30
  %302 = add nsw i32 %301, 1
  store i32 %302, ptr %27, align 4, !tbaa !30
  br label %33, !llvm.loop !191

303:                                              ; preds = %33
  call void @llvm.lifetime.end.p0(i64 4, ptr %27) #8
  ret void
}

; Function Attrs: nounwind uwtable
define internal void @yuv2vuyX_X_c(ptr noundef %0, ptr noundef %1, ptr noundef %2, i32 noundef %3, ptr noundef %4, ptr noundef %5, ptr noundef %6, i32 noundef %7, ptr noundef %8, ptr noundef %9, i32 noundef %10, i32 noundef %11) #4 {
  %13 = alloca ptr, align 8
  %14 = alloca ptr, align 8
  %15 = alloca ptr, align 8
  %16 = alloca i32, align 4
  %17 = alloca ptr, align 8
  %18 = alloca ptr, align 8
  %19 = alloca ptr, align 8
  %20 = alloca i32, align 4
  %21 = alloca ptr, align 8
  %22 = alloca ptr, align 8
  %23 = alloca i32, align 4
  %24 = alloca i32, align 4
  store ptr %0, ptr %13, align 8, !tbaa !4
  store ptr %1, ptr %14, align 8, !tbaa !45
  store ptr %2, ptr %15, align 8, !tbaa !47
  store i32 %3, ptr %16, align 4, !tbaa !30
  store ptr %4, ptr %17, align 8, !tbaa !45
  store ptr %5, ptr %18, align 8, !tbaa !47
  store ptr %6, ptr %19, align 8, !tbaa !47
  store i32 %7, ptr %20, align 4, !tbaa !30
  store ptr %8, ptr %21, align 8, !tbaa !47
  store ptr %9, ptr %22, align 8, !tbaa !46
  store i32 %10, ptr %23, align 4, !tbaa !30
  store i32 %11, ptr %24, align 4, !tbaa !30
  %25 = load ptr, ptr %13, align 8, !tbaa !4
  %26 = load ptr, ptr %14, align 8, !tbaa !45
  %27 = load ptr, ptr %15, align 8, !tbaa !47
  %28 = load i32, ptr %16, align 4, !tbaa !30
  %29 = load ptr, ptr %17, align 8, !tbaa !45
  %30 = load ptr, ptr %18, align 8, !tbaa !47
  %31 = load ptr, ptr %19, align 8, !tbaa !47
  %32 = load i32, ptr %20, align 4, !tbaa !30
  %33 = load ptr, ptr %21, align 8, !tbaa !47
  %34 = load ptr, ptr %22, align 8, !tbaa !46
  %35 = load i32, ptr %23, align 4, !tbaa !30
  %36 = load i32, ptr %24, align 4, !tbaa !30
  call void @yuv2ayuv_X_c_template(ptr noundef %25, ptr noundef %26, ptr noundef %27, i32 noundef %28, ptr noundef %29, ptr noundef %30, ptr noundef %31, i32 noundef %32, ptr noundef %33, ptr noundef %34, i32 noundef %35, i32 noundef %36, i32 noundef 208)
  ret void
}