; Function Attrs: nofree norecurse nosync nounwind memory(read, argmem: readwrite, inaccessiblemem: none) uwtable
define internal void @yuv2vuyX_X_c(ptr readnone captures(none) %0, ptr noundef readonly captures(none) %1, ptr noundef readonly captures(none) %2, i32 noundef %3, ptr noundef readonly captures(none) %4, ptr noundef readonly captures(none) %5, ptr noundef readonly captures(none) %6, i32 noundef %7, ptr noundef readonly captures(address_is_null) %8, ptr noundef writeonly captures(none) %9, i32 noundef %10, i32 %11) #3 {
  %13 = icmp sgt i32 %10, 0
  br i1 %13, label %.preheader13.lr.ph, label %yuv2ayuv_X_c_template.exit

.preheader13.lr.ph:                               ; preds = %12
  %14 = icmp slt i32 %3, 1
  %15 = icmp sgt i32 %7, 0
  %.not104.i = icmp eq ptr %8, null
  %wide.trip.count53 = zext nneg i32 %10 to i64
  %wide.trip.count = zext nneg i32 %3 to i64
  %wide.trip.count38 = zext nneg i32 %7 to i64
  %wide.trip.count43 = zext nneg i32 %7 to i64
  %wide.trip.count48 = zext nneg i32 %3 to i64
  %brmerge = or i1 %.not104.i, %14
  %.mux = select i1 %.not104.i, i32 255, i32 0
  br label %.preheader13

.preheader13:                                     ; preds = %.preheader13.lr.ph, %._crit_edge27.thread
  %indvars.iv50 = phi i64 [ 0, %.preheader13.lr.ph ], [ %indvars.iv.next51, %._crit_edge27.thread ]
  br i1 %14, label %.preheader12, label %.lr.ph

.preheader12:                                     ; preds = %.lr.ph, %.preheader13
  %.093.i.lcssa = phi i32 [ 262144, %.preheader13 ], [ %25, %.lr.ph ]
  br i1 %15, label %.lr.ph18, label %._crit_edge

.lr.ph:                                           ; preds = %.preheader13, %.lr.ph
  %indvars.iv = phi i64 [ %indvars.iv.next, %.lr.ph ], [ 0, %.preheader13 ]
  %.093.i15 = phi i32 [ %25, %.lr.ph ], [ 262144, %.preheader13 ]
  %16 = getelementptr inbounds nuw ptr, ptr %2, i64 %indvars.iv
  %17 = load ptr, ptr %16, align 8, !tbaa !43
  %18 = getelementptr inbounds nuw i16, ptr %17, i64 %indvars.iv50
  %19 = load i16, ptr %18, align 2, !tbaa !39
  %20 = sext i16 %19 to i32
  %21 = getelementptr inbounds nuw i16, ptr %1, i64 %indvars.iv
  %22 = load i16, ptr %21, align 2, !tbaa !39
  %23 = sext i16 %22 to i32
  %24 = mul nsw i32 %23, %20
  %25 = add nsw i32 %24, %.093.i15
  %indvars.iv.next = add nuw nsw i64 %indvars.iv, 1
  %exitcond.not = icmp eq i64 %indvars.iv.next, %wide.trip.count
  br i1 %exitcond.not, label %.preheader12, label %.lr.ph, !llvm.loop !165

.lr.ph18:                                         ; preds = %.preheader12, %.lr.ph18
  %indvars.iv35 = phi i64 [ %indvars.iv.next36, %.lr.ph18 ], [ 0, %.preheader12 ]
  %.091.i17 = phi i32 [ %35, %.lr.ph18 ], [ 262144, %.preheader12 ]
  %26 = getelementptr inbounds nuw ptr, ptr %5, i64 %indvars.iv35
  %27 = load ptr, ptr %26, align 8, !tbaa !43
  %28 = getelementptr inbounds nuw i16, ptr %27, i64 %indvars.iv50
  %29 = load i16, ptr %28, align 2, !tbaa !39
  %30 = sext i16 %29 to i32
  %31 = getelementptr inbounds nuw i16, ptr %4, i64 %indvars.iv35
  %32 = load i16, ptr %31, align 2, !tbaa !39
  %33 = sext i16 %32 to i32
  %34 = mul nsw i32 %33, %30
  %35 = add nsw i32 %34, %.091.i17
  %indvars.iv.next36 = add nuw nsw i64 %indvars.iv35, 1
  %exitcond39.not = icmp eq i64 %indvars.iv.next36, %wide.trip.count38
  br i1 %exitcond39.not, label %.lr.ph22, label %.lr.ph18, !llvm.loop !166

.lr.ph22:                                         ; preds = %.lr.ph18, %.lr.ph22
  %indvars.iv40 = phi i64 [ %indvars.iv.next41, %.lr.ph22 ], [ 0, %.lr.ph18 ]
  %.089.i21 = phi i32 [ %45, %.lr.ph22 ], [ 262144, %.lr.ph18 ]
  %36 = getelementptr inbounds nuw ptr, ptr %6, i64 %indvars.iv40
  %37 = load ptr, ptr %36, align 8, !tbaa !43
  %38 = getelementptr inbounds nuw i16, ptr %37, i64 %indvars.iv50
  %39 = load i16, ptr %38, align 2, !tbaa !39
  %40 = sext i16 %39 to i32
  %41 = getelementptr inbounds nuw i16, ptr %4, i64 %indvars.iv40
  %42 = load i16, ptr %41, align 2, !tbaa !39
  %43 = sext i16 %42 to i32
  %44 = mul nsw i32 %43, %40
  %45 = add nsw i32 %44, %.089.i21
  %indvars.iv.next41 = add nuw nsw i64 %indvars.iv40, 1
  %exitcond44.not = icmp eq i64 %indvars.iv.next41, %wide.trip.count43
  br i1 %exitcond44.not, label %._crit_edge, label %.lr.ph22, !llvm.loop !167

._crit_edge:                                      ; preds = %.lr.ph22, %.preheader12
  %.091.i.lcssa56 = phi i32 [ 262144, %.preheader12 ], [ %35, %.lr.ph22 ]
  %.089.i.lcssa = phi i32 [ 262144, %.preheader12 ], [ %45, %.lr.ph22 ]
  %46 = ashr i32 %.093.i.lcssa, 19
  %47 = ashr i32 %.091.i.lcssa56, 19
  %48 = ashr i32 %.089.i.lcssa, 19
  %49 = and i32 %.093.i.lcssa, 134217728
  %.not.i = icmp eq i32 %49, 0
  %.not.i112.i = icmp ult i32 %46, 256
  %isnotneg.i113.i = icmp sgt i32 %46, -1
  %50 = sext i1 %isnotneg.i113.i to i32
  %51 = or i1 %.not.i, %.not.i112.i
  %.194.i = select i1 %51, i32 %46, i32 %50
  %52 = and i32 %.091.i.lcssa56, 134217728
  %.not102.i = icmp eq i32 %52, 0
  %.not.i109.i = icmp ult i32 %47, 256
  %isnotneg.i110.i = icmp sgt i32 %47, -1
  %53 = sext i1 %isnotneg.i110.i to i32
  %54 = or i1 %.not102.i, %.not.i109.i
  %.192.i = select i1 %54, i32 %47, i32 %53
  %55 = and i32 %.089.i.lcssa, 134217728
  %.not103.i = icmp eq i32 %55, 0
  %.not.i106.i = icmp ult i32 %48, 256
  %isnotneg.i107.i = icmp sgt i32 %48, -1
  %56 = sext i1 %isnotneg.i107.i to i32
  %57 = or i1 %.not103.i, %.not.i106.i
  %.190.i = select i1 %57, i32 %48, i32 %56
  br i1 %brmerge, label %._crit_edge27.thread, label %.lr.ph26

.lr.ph26:                                         ; preds = %._crit_edge, %.lr.ph26
  %indvars.iv45 = phi i64 [ %indvars.iv.next46, %.lr.ph26 ], [ 0, %._crit_edge ]
  %.1.i25 = phi i32 [ %67, %.lr.ph26 ], [ 262144, %._crit_edge ]
  %58 = getelementptr inbounds nuw ptr, ptr %8, i64 %indvars.iv45
  %59 = load ptr, ptr %58, align 8, !tbaa !43
  %60 = getelementptr inbounds nuw i16, ptr %59, i64 %indvars.iv50
  %61 = load i16, ptr %60, align 2, !tbaa !39
  %62 = sext i16 %61 to i32
  %63 = getelementptr inbounds nuw i16, ptr %1, i64 %indvars.iv45
  %64 = load i16, ptr %63, align 2, !tbaa !39
  %65 = sext i16 %64 to i32
  %66 = mul nsw i32 %65, %62
  %67 = add nsw i32 %66, %.1.i25
  %indvars.iv.next46 = add nuw nsw i64 %indvars.iv45, 1
  %exitcond49.not = icmp eq i64 %indvars.iv.next46, %wide.trip.count48
  br i1 %exitcond49.not, label %._crit_edge27, label %.lr.ph26, !llvm.loop !168

._crit_edge27:                                    ; preds = %.lr.ph26
  %68 = ashr i32 %67, 19
  %69 = and i32 %67, 134217728
  %.not105.i = icmp eq i32 %69, 0
  br i1 %.not105.i, label %._crit_edge27.thread, label %70

70:                                               ; preds = %._crit_edge27
  %.not.i.i = icmp ult i32 %68, 256
  %isnotneg.i.i = icmp sgt i32 %68, -1
  %71 = sext i1 %isnotneg.i.i to i32
  %.0.i.i = select i1 %.not.i.i, i32 %68, i32 %71
  br label %._crit_edge27.thread

._crit_edge27.thread:                             ; preds = %._crit_edge, %70, %._crit_edge27
  %.0.i = phi i32 [ %.0.i.i, %70 ], [ %68, %._crit_edge27 ], [ %.mux, %._crit_edge ]
  %72 = trunc i32 %.190.i to i8
  %73 = shl nsw i64 %indvars.iv50, 2
  %74 = getelementptr inbounds nuw i8, ptr %9, i64 %73
  store i8 %72, ptr %74, align 1, !tbaa !41
  %75 = trunc i32 %.192.i to i8
  %76 = getelementptr inbounds nuw i8, ptr %74, i64 1
  store i8 %75, ptr %76, align 1, !tbaa !41
  %77 = trunc i32 %.194.i to i8
  %78 = getelementptr inbounds nuw i8, ptr %74, i64 2
  store i8 %77, ptr %78, align 1, !tbaa !41
  %79 = trunc i32 %.0.i to i8
  %80 = getelementptr inbounds nuw i8, ptr %74, i64 3
  store i8 %79, ptr %80, align 1, !tbaa !41
  %indvars.iv.next51 = add nuw nsw i64 %indvars.iv50, 1
  %exitcond54.not = icmp eq i64 %indvars.iv.next51, %wide.trip.count53
  br i1 %exitcond54.not, label %yuv2ayuv_X_c_template.exit, label %.preheader13, !llvm.loop !169

yuv2ayuv_X_c_template.exit:                       ; preds = %._crit_edge27.thread, %12
  ret void
}